target datalayout = "e-m:e-p270:32:32-p271:32:32-p272:64:64-i64:64-i128:128-f80:128-n8:16:32:64-S128"
target triple = "x86_64-pc-linux-gnu"

; Function Attrs: nounwind uwtable
define float @catmull_rom_val(i32 noundef %0, ptr noundef %1, float noundef %2, ptr noundef %3, ptr noundef %4) #0 {
  %6 = alloca i32, align 4
  %7 = alloca ptr, align 8
  %8 = alloca float, align 4
  %9 = alloca ptr, align 8
  %10 = alloca ptr, align 8
  %11 = alloca i32, align 4
  %12 = alloca i32, align 4
  %13 = alloca i32, align 4
  %14 = alloca float, align 4
  %15 = alloca float, align 4
  %16 = alloca float, align 4
  %17 = alloca float, align 4
  %18 = alloca float, align 4
  %19 = alloca float, align 4
  %20 = alloca float, align 4
  %21 = alloca float, align 4
  %22 = alloca float, align 4
  %23 = alloca float, align 4
  store i32 %0, ptr %6, align 4, !tbaa !6
  store ptr %1, ptr %7, align 8, !tbaa !10
  store float %2, ptr %8, align 4, !tbaa !13
  store ptr %3, ptr %9, align 8, !tbaa !10
  store ptr %4, ptr %10, align 8, !tbaa !10
  call void @llvm.lifetime.start.p0(i64 4, ptr %11) #6
  %24 = load i32, ptr %6, align 4, !tbaa !6
  %25 = sub nsw i32 %24, 2
  store i32 %25, ptr %11, align 4, !tbaa !6
  call void @llvm.lifetime.start.p0(i64 4, ptr %12) #6
  store i32 0, ptr %12, align 4, !tbaa !6
  br label %26

26:                                               ; preds = %44, %5
  %27 = load i32, ptr %12, align 4, !tbaa !6
  %28 = load i32, ptr %6, align 4, !tbaa !6
  %29 = sub nsw i32 %28, 2
  %30 = icmp slt i32 %27, %29
  br i1 %30, label %32, label %31

31:                                               ; preds = %26
  store i32 2, ptr %13, align 4
  br label %47

32:                                               ; preds = %26
  %33 = load float, ptr %8, align 4, !tbaa !13
  %34 = load ptr, ptr %7, align 8, !tbaa !10
  %35 = load i32, ptr %12, align 4, !tbaa !6
  %36 = add nsw i32 %35, 1
  %37 = sext i32 %36 to i64
  %38 = getelementptr inbounds float, ptr %34, i64 %37
  %39 = load float, ptr %38, align 4, !tbaa !13
  %40 = fcmp reassoc nsz arcp contract afn olt float %33, %39
  br i1 %40, label %41, label %43

41:                                               ; preds = %32
  %42 = load i32, ptr %12, align 4, !tbaa !6
  store i32 %42, ptr %11, align 4, !tbaa !6
  store i32 2, ptr %13, align 4
  br label %47

43:                                               ; preds = %32
  br label %44

44:                                               ; preds = %43
  %45 = load i32, ptr %12, align 4, !tbaa !6
  %46 = add nsw i32 %45, 1
  store i32 %46, ptr %12, align 4, !tbaa !6
  br label %26

47:                                               ; preds = %41, %31
  call void @llvm.lifetime.end.p0(i64 4, ptr %12) #6
  br label %48

48:                                               ; preds = %47
  call void @llvm.lifetime.start.p0(i64 4, ptr %14) #6
  %49 = load ptr, ptr %10, align 8, !tbaa !10
  %50 = load i32, ptr %11, align 4, !tbaa !6
  %51 = sext i32 %50 to i64
  %52 = getelementptr inbounds float, ptr %49, i64 %51
  %53 = load float, ptr %52, align 4, !tbaa !13
  store float %53, ptr %14, align 4, !tbaa !13
  call void @llvm.lifetime.start.p0(i64 4, ptr %15) #6
  %54 = load ptr, ptr %10, align 8, !tbaa !10
  %55 = load i32, ptr %11, align 4, !tbaa !6
  %56 = add nsw i32 %55, 1
  %57 = sext i32 %56 to i64
  %58 = getelementptr inbounds float, ptr %54, i64 %57
  %59 = load float, ptr %58, align 4, !tbaa !13
  store float %59, ptr %15, align 4, !tbaa !13
  call void @llvm.lifetime.start.p0(i64 4, ptr %16) #6
  %60 = load ptr, ptr %7, align 8, !tbaa !10
  %61 = load i32, ptr %11, align 4, !tbaa !6
  %62 = add nsw i32 %61, 1
  %63 = sext i32 %62 to i64
  %64 = getelementptr inbounds float, ptr %60, i64 %63
  %65 = load float, ptr %64, align 4, !tbaa !13
  %66 = load ptr, ptr %7, align 8, !tbaa !10
  %67 = load i32, ptr %11, align 4, !tbaa !6
  %68 = sext i32 %67 to i64
  %69 = getelementptr inbounds float, ptr %66, i64 %68
  %70 = load float, ptr %69, align 4, !tbaa !13
  %71 = fsub reassoc nsz arcp contract afn float %65, %70
  store float %71, ptr %16, align 4, !tbaa !13
  call void @llvm.lifetime.start.p0(i64 4, ptr %17) #6
  %72 = load float, ptr %8, align 4, !tbaa !13
  %73 = load ptr, ptr %7, align 8, !tbaa !10
  %74 = load i32, ptr %11, align 4, !tbaa !6
  %75 = sext i32 %74 to i64
  %76 = getelementptr inbounds float, ptr %73, i64 %75
  %77 = load float, ptr %76, align 4, !tbaa !13
  %78 = fsub reassoc nsz arcp contract afn float %72, %77
  %79 = load float, ptr %16, align 4, !tbaa !13
  %80 = fdiv reassoc nsz arcp contract afn float %78, %79
  store float %80, ptr %17, align 4, !tbaa !13
  call void @llvm.lifetime.start.p0(i64 4, ptr %18) #6
  %81 = load float, ptr %17, align 4, !tbaa !13
  %82 = load float, ptr %17, align 4, !tbaa !13
  %83 = fmul reassoc nsz arcp contract afn float %81, %82
  store float %83, ptr %18, align 4, !tbaa !13
  call void @llvm.lifetime.start.p0(i64 4, ptr %19) #6
  %84 = load float, ptr %17, align 4, !tbaa !13
  %85 = load float, ptr %18, align 4, !tbaa !13
  %86 = fmul reassoc nsz arcp contract afn float %84, %85
  store float %86, ptr %19, align 4, !tbaa !13
  call void @llvm.lifetime.start.p0(i64 4, ptr %20) #6
  %87 = load float, ptr %19, align 4, !tbaa !13
  %88 = fpext reassoc nsz arcp contract afn float %87 to double
  %89 = fmul reassoc nsz arcp contract afn double 2.000000e+00, %88
  %90 = load float, ptr %18, align 4, !tbaa !13
  %91 = fpext reassoc nsz arcp contract afn float %90 to double
  %92 = fmul reassoc nsz arcp contract afn double 3.000000e+00, %91
  %93 = fsub reassoc nsz arcp contract afn double %89, %92
  %94 = fadd reassoc nsz arcp contract afn double %93, 1.000000e+00
  %95 = fptrunc reassoc nsz arcp contract afn double %94 to float
  store float %95, ptr %20, align 4, !tbaa !13
  call void @llvm.lifetime.start.p0(i64 4, ptr %21) #6
  %96 = load float, ptr %19, align 4, !tbaa !13
  %97 = fpext reassoc nsz arcp contract afn float %96 to double
  %98 = fmul reassoc nsz arcp contract afn double 1.000000e+00, %97
  %99 = load float, ptr %18, align 4, !tbaa !13
  %100 = fpext reassoc nsz arcp contract afn float %99 to double
  %101 = fmul reassoc nsz arcp contract afn double 2.000000e+00, %100
  %102 = fsub reassoc nsz arcp contract afn double %98, %101
  %103 = load float, ptr %17, align 4, !tbaa !13
  %104 = fpext reassoc nsz arcp contract afn float %103 to double
  %105 = fadd reassoc nsz arcp contract afn double %102, %104
  %106 = fptrunc reassoc nsz arcp contract afn double %105 to float
  store float %106, ptr %21, align 4, !tbaa !13
  call void @llvm.lifetime.start.p0(i64 4, ptr %22) #6
  %107 = load float, ptr %19, align 4, !tbaa !13
  %108 = fpext reassoc nsz arcp contract afn float %107 to double
  %109 = fmul reassoc nsz arcp contract afn double -2.000000e+00, %108
  %110 = load float, ptr %18, align 4, !tbaa !13
  %111 = fpext reassoc nsz arcp contract afn float %110 to double
  %112 = fmul reassoc nsz arcp contract afn double 3.000000e+00, %111
  %113 = fadd reassoc nsz arcp contract afn double %109, %112
  %114 = fptrunc reassoc nsz arcp contract afn double %113 to float
  store float %114, ptr %22, align 4, !tbaa !13
  call void @llvm.lifetime.start.p0(i64 4, ptr %23) #6
  %115 = load float, ptr %19, align 4, !tbaa !13
  %116 = fpext reassoc nsz arcp contract afn float %115 to double
  %117 = fmul reassoc nsz arcp contract afn double 1.000000e+00, %116
  %118 = load float, ptr %18, align 4, !tbaa !13
  %119 = fpext reassoc nsz arcp contract afn float %118 to double
  %120 = fmul reassoc nsz arcp contract afn double 1.000000e+00, %119
  %121 = fsub reassoc nsz arcp contract afn double %117, %120
  %122 = fptrunc reassoc nsz arcp contract afn double %121 to float
  store float %122, ptr %23, align 4, !tbaa !13
  %123 = load float, ptr %20, align 4, !tbaa !13
  %124 = load ptr, ptr %9, align 8, !tbaa !10
  %125 = load i32, ptr %11, align 4, !tbaa !6
  %126 = sext i32 %125 to i64
  %127 = getelementptr inbounds float, ptr %124, i64 %126
  %128 = load float, ptr %127, align 4, !tbaa !13
  %129 = fmul reassoc nsz arcp contract afn float %123, %128
  %130 = load float, ptr %21, align 4, !tbaa !13
  %131 = load float, ptr %16, align 4, !tbaa !13
  %132 = fmul reassoc nsz arcp contract afn float %130, %131
  %133 = load float, ptr %14, align 4, !tbaa !13
  %134 = fmul reassoc nsz arcp contract afn float %132, %133
  %135 = fadd reassoc nsz arcp contract afn float %129, %134
  %136 = load float, ptr %22, align 4, !tbaa !13
  %137 = load ptr, ptr %9, align 8, !tbaa !10
  %138 = load i32, ptr %11, align 4, !tbaa !6
  %139 = add nsw i32 %138, 1
  %140 = sext i32 %139 to i64
  %141 = getelementptr inbounds float, ptr %137, i64 %140
  %142 = load float, ptr %141, align 4, !tbaa !13
  %143 = fmul reassoc nsz arcp contract afn float %136, %142
  %144 = fadd reassoc nsz arcp contract afn float %135, %143
  %145 = load float, ptr %23, align 4, !tbaa !13
  %146 = load float, ptr %16, align 4, !tbaa !13
  %147 = fmul reassoc nsz arcp contract afn float %145, %146
  %148 = load float, ptr %15, align 4, !tbaa !13
  %149 = fmul reassoc nsz arcp contract afn float %147, %148
  %150 = fadd reassoc nsz arcp contract afn float %144, %149
  store i32 1, ptr %13, align 4
  call void @llvm.lifetime.end.p0(i64 4, ptr %23) #6
  call void @llvm.lifetime.end.p0(i64 4, ptr %22) #6
  call void @llvm.lifetime.end.p0(i64 4, ptr %21) #6
  call void @llvm.lifetime.end.p0(i64 4, ptr %20) #6
  call void @llvm.lifetime.end.p0(i64 4, ptr %19) #6
  call void @llvm.lifetime.end.p0(i64 4, ptr %18) #6
  call void @llvm.lifetime.end.p0(i64 4, ptr %17) #6
  call void @llvm.lifetime.end.p0(i64 4, ptr %16) #6
  call void @llvm.lifetime.end.p0(i64 4, ptr %15) #6
  call void @llvm.lifetime.end.p0(i64 4, ptr %14) #6
  call void @llvm.lifetime.end.p0(i64 4, ptr %11) #6
  ret float %150
}