; Function Attrs: nofree norecurse nosync nounwind memory(argmem: read) uwtable
define float @catmull_rom_val(i32 noundef %0, ptr noundef readonly captures(none) %1, float noundef %2, ptr noundef readonly captures(none) %3, ptr noundef readonly captures(none) %4) #0 {
  %6 = add nsw i32 %0, -2
  %smax = tail call i32 @llvm.smax.i32(i32 %6, i32 0)
  %wide.trip.count = zext nneg i32 %smax to i64
  br label %7

7:                                                ; preds = %8, %5
  %indvars.iv = phi i64 [ %indvars.iv.next, %8 ], [ 0, %5 ]
  %exitcond.not = icmp eq i64 %indvars.iv, %wide.trip.count
  br i1 %exitcond.not, label %.split.loop.exit48, label %8

8:                                                ; preds = %7
  %indvars.iv.next = add nuw nsw i64 %indvars.iv, 1
  %9 = getelementptr inbounds nuw float, ptr %1, i64 %indvars.iv.next
  %10 = load float, ptr %9, align 4, !tbaa !6
  %11 = fcmp reassoc nsz arcp contract afn olt float %2, %10
  br i1 %11, label %.split.loop.exit, label %7

.split.loop.exit:                                 ; preds = %8
  %12 = trunc nuw nsw i64 %indvars.iv to i32
  br label %.split.loop.exit48

.split.loop.exit48:                               ; preds = %7, %.split.loop.exit
  %.0 = phi i32 [ %12, %.split.loop.exit ], [ %6, %7 ]
  %13 = sext i32 %.0 to i64
  %14 = getelementptr inbounds float, ptr %4, i64 %13
  %15 = load float, ptr %14, align 4, !tbaa !6
  %16 = add nsw i32 %.0, 1
  %17 = sext i32 %16 to i64
  %18 = getelementptr inbounds float, ptr %4, i64 %17
  %19 = load float, ptr %18, align 4, !tbaa !6
  %20 = getelementptr inbounds float, ptr %1, i64 %17
  %21 = load float, ptr %20, align 4, !tbaa !6
  %22 = getelementptr inbounds float, ptr %1, i64 %13
  %23 = load float, ptr %22, align 4, !tbaa !6
  %24 = fsub reassoc nsz arcp contract afn float %21, %23
  %25 = fsub reassoc nsz arcp contract afn float %2, %23
  %26 = fdiv reassoc nsz arcp contract afn float %25, %24
  %27 = fmul reassoc nsz arcp contract afn float %26, %26
  %28 = fmul reassoc nsz arcp contract afn float %27, %26
  %29 = fpext reassoc nsz arcp contract afn float %28 to double
  %30 = fmul reassoc nsz arcp contract afn double %29, 2.000000e+00
  %31 = fpext reassoc nsz arcp contract afn float %27 to double
  %32 = fmul reassoc nsz arcp contract afn double %31, 3.000000e+00
  %33 = fsub reassoc nsz arcp contract afn double 1.000000e+00, %32
  %34 = fadd reassoc nsz arcp contract afn double %33, %30
  %35 = fptrunc reassoc nsz arcp contract afn double %34 to float
  %.neg46 = fmul reassoc nsz arcp contract afn double %31, -2.000000e+00
  %36 = fpext reassoc nsz arcp contract afn float %26 to double
  %37 = fadd reassoc nsz arcp contract afn double %.neg46, %36
  %38 = fadd reassoc nsz arcp contract afn double %37, %29
  %39 = fptrunc reassoc nsz arcp contract afn double %38 to float
  %40 = fsub reassoc nsz arcp contract afn double %32, %30
  %41 = fptrunc reassoc nsz arcp contract afn double %40 to float
  %42 = fsub reassoc nsz arcp contract afn float %28, %27
  %43 = getelementptr inbounds float, ptr %3, i64 %13
  %44 = load float, ptr %43, align 4, !tbaa !6
  %45 = fmul reassoc nsz arcp contract afn float %44, %35
  %46 = fmul reassoc nsz arcp contract afn float %15, %39
  %47 = getelementptr inbounds float, ptr %3, i64 %17
  %48 = load float, ptr %47, align 4, !tbaa !6
  %49 = fmul reassoc nsz arcp contract afn float %48, %41
  %50 = fmul reassoc nsz arcp contract afn float %42, %19
  %reass.add = fadd reassoc nsz arcp contract afn float %46, %50
  %reass.mul = fmul reassoc nsz arcp contract afn float %reass.add, %24
  %51 = fadd reassoc nsz arcp contract afn float %49, %45
  %52 = fadd reassoc nsz arcp contract afn float %51, %reass.mul
  ret float %52
}